; Function Attrs: nounwind uwtable
define ptr @l_Lean_Meta_MatcherApp_transform___rarg___lambda__4___boxed(ptr noundef %0, ptr noundef %1, ptr noundef %2, ptr noundef %3, ptr noundef %4, ptr noundef %5, ptr noundef %6, ptr noundef %7, ptr noundef %8) #1 {
  %10 = ptrtoint ptr %5 to i64
  %11 = and i64 %10, 1
  %.not = icmp eq i64 %11, 0
  br i1 %.not, label %12, label %lean_dec.exit13

12:                                               ; preds = %9
  %13 = load i32, ptr %5, align 4, !tbaa !8
  %14 = icmp sgt i32 %13, 1
  br i1 %14, label %15, label %17, !prof !11

15:                                               ; preds = %12
  %16 = add nsw i32 %13, -1
  store i32 %16, ptr %5, align 4, !tbaa !8
  br label %lean_dec.exit13

17:                                               ; preds = %12
  %.not.i = icmp eq i32 %13, 0
  br i1 %.not.i, label %lean_dec.exit13, label %18

18:                                               ; preds = %17
  tail call void @lean_dec_ref_cold(ptr noundef nonnull %5) #4
  br label %lean_dec.exit13

lean_dec.exit13:                                  ; preds = %18, %17, %15, %9
  %19 = getelementptr i8, ptr %7, i64 8
  %.val = load i64, ptr %19, align 8, !tbaa !12
  %20 = ptrtoint ptr %7 to i64
  %21 = and i64 %20, 1
  %.not16 = icmp eq i64 %21, 0
  br i1 %.not16, label %22, label %lean_dec.exit

22:                                               ; preds = %lean_dec.exit13
  %23 = load i32, ptr %7, align 4, !tbaa !8
  %24 = icmp sgt i32 %23, 1
  br i1 %24, label %25, label %27, !prof !11

25:                                               ; preds = %22
  %26 = add nsw i32 %23, -1
  store i32 %26, ptr %7, align 4, !tbaa !8
  br label %lean_dec.exit

27:                                               ; preds = %22
  %.not.i14 = icmp eq i32 %23, 0
  br i1 %.not.i14, label %lean_dec.exit, label %28

28:                                               ; preds = %27
  tail call void @lean_dec_ref_cold(ptr noundef nonnull %7) #4
  br label %lean_dec.exit

lean_dec.exit:                                    ; preds = %28, %27, %25, %lean_dec.exit13
  %29 = lshr i64 %10, 1
  %30 = trunc i64 %29 to i8
  %31 = tail call ptr @l_Lean_Meta_MatcherApp_transform___rarg___lambda__4(ptr noundef %0, ptr noundef %1, ptr noundef %2, ptr noundef %3, ptr noundef %4, i8 noundef zeroext %30, ptr noundef %6, i64 noundef %.val, ptr noundef %8)
  ret ptr %31
}